target datalayout = "e-m:e-p270:32:32-p271:32:32-p272:64:64-i64:64-i128:128-f80:128-n8:16:32:64-S128"
target triple = "x86_64-pc-linux-gnu"

%struct.ForEachState = type { ptr, i32 }
%struct.List = type { i32, i32, i32, ptr, [0 x %union.ListCell] }
%union.ListCell = type { ptr }
%struct.ObjectAddress = type { i32, i32, i32 }
%struct.EventTriggerQueryState = type { ptr, %struct.slist_head, i8, i32, i32, i8, ptr, ptr, ptr }
%struct.slist_head = type { %struct.slist_node }
%struct.slist_node = type { ptr }
%struct.CollectedCommand = type { i32, i8, ptr, %union.anon, ptr }
%union.anon = type { %struct.anon.2 }
%struct.anon.2 = type { %struct.ObjectAddress, ptr, ptr }
%struct.InternalGrant = type { i8, i32, ptr, i8, i64, ptr, ptr, i8, i32 }
%struct.anon.1 = type { ptr }

@currentEventTriggerState = internal global ptr null, align 8
@creating_extension = external global i8, align 1
@CurrentMemoryContext = external global ptr, align 8

; Function Attrs: inlinehint nounwind uwtable
define internal ptr @MemoryContextSwitchTo(ptr noundef %0) #6 {
  %2 = alloca ptr, align 8
  %3 = alloca ptr, align 8
  store ptr %0, ptr %2, align 8
  call void @llvm.lifetime.start.p0(i64 8, ptr %3) #10
  %4 = load ptr, ptr @CurrentMemoryContext, align 8
  store ptr %4, ptr %3, align 8
  %5 = load ptr, ptr %2, align 8
  store ptr %5, ptr @CurrentMemoryContext, align 8
  %6 = load ptr, ptr %3, align 8
  call void @llvm.lifetime.end.p0(i64 8, ptr %3) #10
  ret ptr %6
}

; Function Attrs: nounwind uwtable
define dso_local void @EventTriggerCollectGrant(ptr noundef %0) #0 {
  %2 = alloca ptr, align 8
  %3 = alloca ptr, align 8
  %4 = alloca ptr, align 8
  %5 = alloca ptr, align 8
  %6 = alloca ptr, align 8
  %7 = alloca i32, align 4
  %8 = alloca %struct.ForEachState, align 8
  store ptr %0, ptr %2, align 8
  call void @llvm.lifetime.start.p0(i64 8, ptr %3) #10
  call void @llvm.lifetime.start.p0(i64 8, ptr %4) #10
  call void @llvm.lifetime.start.p0(i64 8, ptr %5) #10
  call void @llvm.lifetime.start.p0(i64 8, ptr %6) #10
  %9 = load ptr, ptr @currentEventTriggerState, align 8
  %10 = icmp ne ptr %9, null
  br i1 %10, label %11, label %16

11:                                               ; preds = %1
  %12 = load ptr, ptr @currentEventTriggerState, align 8
  %13 = getelementptr inbounds nuw %struct.EventTriggerQueryState, ptr %12, i32 0, i32 5
  %14 = load i8, ptr %13, align 4, !range !8, !noundef !9
  %15 = trunc i8 %14 to i1
  br i1 %15, label %16, label %17

16:                                               ; preds = %11, %1
  store i32 1, ptr %7, align 4
  br label %109

17:                                               ; preds = %11
  %18 = load ptr, ptr @currentEventTriggerState, align 8
  %19 = getelementptr inbounds nuw %struct.EventTriggerQueryState, ptr %18, i32 0, i32 0
  %20 = load ptr, ptr %19, align 8
  %21 = call ptr @MemoryContextSwitchTo(ptr noundef %20)
  store ptr %21, ptr %3, align 8
  %22 = call ptr @palloc(i64 noundef 56)
  store ptr %22, ptr %5, align 8
  %23 = load ptr, ptr %5, align 8
  %24 = load ptr, ptr %2, align 8
  call void @llvm.memcpy.p0.p0.i64(ptr align 8 %23, ptr align 8 %24, i64 56, i1 false)
  %25 = load ptr, ptr %2, align 8
  %26 = getelementptr inbounds nuw %struct.InternalGrant, ptr %25, i32 0, i32 2
  %27 = load ptr, ptr %26, align 8
  %28 = call ptr @list_copy(ptr noundef %27)
  %29 = load ptr, ptr %5, align 8
  %30 = getelementptr inbounds nuw %struct.InternalGrant, ptr %29, i32 0, i32 2
  store ptr %28, ptr %30, align 8
  %31 = load ptr, ptr %2, align 8
  %32 = getelementptr inbounds nuw %struct.InternalGrant, ptr %31, i32 0, i32 6
  %33 = load ptr, ptr %32, align 8
  %34 = call ptr @list_copy(ptr noundef %33)
  %35 = load ptr, ptr %5, align 8
  %36 = getelementptr inbounds nuw %struct.InternalGrant, ptr %35, i32 0, i32 6
  store ptr %34, ptr %36, align 8
  %37 = load ptr, ptr %5, align 8
  %38 = getelementptr inbounds nuw %struct.InternalGrant, ptr %37, i32 0, i32 5
  store ptr null, ptr %38, align 8
  call void @llvm.lifetime.start.p0(i64 16, ptr %8) #10
  %39 = getelementptr inbounds nuw %struct.ForEachState, ptr %8, i32 0, i32 0
  %40 = load ptr, ptr %2, align 8
  %41 = getelementptr inbounds nuw %struct.InternalGrant, ptr %40, i32 0, i32 5
  %42 = load ptr, ptr %41, align 8
  store ptr %42, ptr %39, align 8
  %43 = getelementptr inbounds nuw %struct.ForEachState, ptr %8, i32 0, i32 1
  store i32 0, ptr %43, align 8
  %44 = getelementptr i8, ptr %8, i64 12
  call void @llvm.memset.p0.i64(ptr align 4 %44, i8 0, i64 4, i1 false)
  br label %45

45:                                               ; preds = %81, %17
  %46 = getelementptr inbounds nuw %struct.ForEachState, ptr %8, i32 0, i32 0
  %47 = load ptr, ptr %46, align 8
  %48 = icmp ne ptr %47, null
  br i1 %48, label %49, label %66

49:                                               ; preds = %45
  %50 = getelementptr inbounds nuw %struct.ForEachState, ptr %8, i32 0, i32 1
  %51 = load i32, ptr %50, align 8
  %52 = getelementptr inbounds nuw %struct.ForEachState, ptr %8, i32 0, i32 0
  %53 = load ptr, ptr %52, align 8
  %54 = getelementptr inbounds nuw %struct.List, ptr %53, i32 0, i32 1
  %55 = load i32, ptr %54, align 4
  %56 = icmp slt i32 %51, %55
  br i1 %56, label %57, label %66

57:                                               ; preds = %49
  %58 = getelementptr inbounds nuw %struct.ForEachState, ptr %8, i32 0, i32 0
  %59 = load ptr, ptr %58, align 8
  %60 = getelementptr inbounds nuw %struct.List, ptr %59, i32 0, i32 3
  %61 = load ptr, ptr %60, align 8
  %62 = getelementptr inbounds nuw %struct.ForEachState, ptr %8, i32 0, i32 1
  %63 = load i32, ptr %62, align 8
  %64 = sext i32 %63 to i64
  %65 = getelementptr inbounds %union.ListCell, ptr %61, i64 %64
  store ptr %65, ptr %6, align 8
  br label %67

66:                                               ; preds = %49, %45
  store ptr null, ptr %6, align 8
  br label %67

67:                                               ; preds = %66, %57
  %68 = phi i32 [ 1, %57 ], [ 0, %66 ]
  %69 = icmp ne i32 %68, 0
  br i1 %69, label %71, label %70

70:                                               ; preds = %67
  store i32 2, ptr %7, align 4
  call void @llvm.lifetime.end.p0(i64 16, ptr %8) #10
  br label %85

71:                                               ; preds = %67
  %72 = load ptr, ptr %5, align 8
  %73 = getelementptr inbounds nuw %struct.InternalGrant, ptr %72, i32 0, i32 5
  %74 = load ptr, ptr %73, align 8
  %75 = load ptr, ptr %6, align 8
  %76 = load ptr, ptr %75, align 8
  %77 = call ptr @copyObjectImpl(ptr noundef %76)
  %78 = call ptr @lappend(ptr noundef %74, ptr noundef %77)
  %79 = load ptr, ptr %5, align 8
  %80 = getelementptr inbounds nuw %struct.InternalGrant, ptr %79, i32 0, i32 5
  store ptr %78, ptr %80, align 8
  br label %81

81:                                               ; preds = %71
  %82 = getelementptr inbounds nuw %struct.ForEachState, ptr %8, i32 0, i32 1
  %83 = load i32, ptr %82, align 8
  %84 = add i32 %83, 1
  store i32 %84, ptr %82, align 8
  br label %45, !llvm.loop !13

85:                                               ; preds = %70
  %86 = call ptr @palloc(i64 noundef 56)
  store ptr %86, ptr %4, align 8
  %87 = load ptr, ptr %4, align 8
  %88 = getelementptr inbounds nuw %struct.CollectedCommand, ptr %87, i32 0, i32 0
  store i32 2, ptr %88, align 8
  %89 = load i8, ptr @creating_extension, align 1, !range !8, !noundef !9
  %90 = trunc i8 %89 to i1
  %91 = load ptr, ptr %4, align 8
  %92 = getelementptr inbounds nuw %struct.CollectedCommand, ptr %91, i32 0, i32 1
  %93 = zext i1 %90 to i8
  store i8 %93, ptr %92, align 4
  %94 = load ptr, ptr %5, align 8
  %95 = load ptr, ptr %4, align 8
  %96 = getelementptr inbounds nuw %struct.CollectedCommand, ptr %95, i32 0, i32 3
  %97 = getelementptr inbounds nuw %struct.anon.1, ptr %96, i32 0, i32 0
  store ptr %94, ptr %97, align 8
  %98 = load ptr, ptr %4, align 8
  %99 = getelementptr inbounds nuw %struct.CollectedCommand, ptr %98, i32 0, i32 2
  store ptr null, ptr %99, align 8
  %100 = load ptr, ptr @currentEventTriggerState, align 8
  %101 = getelementptr inbounds nuw %struct.EventTriggerQueryState, ptr %100, i32 0, i32 7
  %102 = load ptr, ptr %101, align 8
  %103 = load ptr, ptr %4, align 8
  %104 = call ptr @lappend(ptr noundef %102, ptr noundef %103)
  %105 = load ptr, ptr @currentEventTriggerState, align 8
  %106 = getelementptr inbounds nuw %struct.EventTriggerQueryState, ptr %105, i32 0, i32 7
  store ptr %104, ptr %106, align 8
  %107 = load ptr, ptr %3, align 8
  %108 = call ptr @MemoryContextSwitchTo(ptr noundef %107)
  store i32 0, ptr %7, align 4
  br label %109

109:                                              ; preds = %85, %16
  call void @llvm.lifetime.end.p0(i64 8, ptr %6) #10
  call void @llvm.lifetime.end.p0(i64 8, ptr %5) #10
  call void @llvm.lifetime.end.p0(i64 8, ptr %4) #10
  call void @llvm.lifetime.end.p0(i64 8, ptr %3) #10
  %110 = load i32, ptr %7, align 4
  switch i32 %110, label %112 [
    i32 0, label %111
    i32 1, label %111
  ]

111:                                              ; preds = %109, %109
  ret void

112:                                              ; preds = %109
  unreachable
}