; Function Attrs: nounwind uwtable
define dso_local void @EventTriggerCollectGrant(ptr noundef readonly captures(none) %0) local_unnamed_addr #0 {
  %2 = load ptr, ptr @currentEventTriggerState, align 8
  %.not = icmp eq ptr %2, null
  br i1 %.not, label %46, label %3

3:                                                ; preds = %1
  %4 = getelementptr inbounds nuw i8, ptr %2, i64 28
  %5 = load i8, ptr %4, align 4, !range !9, !noundef !10
  %6 = trunc nuw i8 %5 to i1
  br i1 %6, label %46, label %7

7:                                                ; preds = %3
  %8 = load ptr, ptr %2, align 8
  %9 = load ptr, ptr @CurrentMemoryContext, align 8
  store ptr %8, ptr @CurrentMemoryContext, align 8
  %10 = tail call ptr @palloc(i64 noundef 56) #16
  tail call void @llvm.memcpy.p0.p0.i64(ptr noundef nonnull align 8 dereferenceable(56) %10, ptr noundef nonnull align 8 dereferenceable(56) %0, i64 56, i1 false)
  %11 = getelementptr inbounds nuw i8, ptr %0, i64 8
  %12 = load ptr, ptr %11, align 8
  %13 = tail call ptr @list_copy(ptr noundef %12) #16
  %14 = getelementptr inbounds nuw i8, ptr %10, i64 8
  store ptr %13, ptr %14, align 8
  %15 = getelementptr inbounds nuw i8, ptr %0, i64 40
  %16 = load ptr, ptr %15, align 8
  %17 = tail call ptr @list_copy(ptr noundef %16) #16
  %18 = getelementptr inbounds nuw i8, ptr %10, i64 40
  store ptr %17, ptr %18, align 8
  %19 = getelementptr inbounds nuw i8, ptr %10, i64 32
  store ptr null, ptr %19, align 8
  %20 = getelementptr inbounds nuw i8, ptr %0, i64 32
  %21 = load ptr, ptr %20, align 8
  %22 = getelementptr inbounds nuw i8, ptr %21, i64 4
  %.not24 = icmp eq ptr %21, null
  br i1 %.not24, label %._crit_edge, label %.lr.ph

.lr.ph:                                           ; preds = %7
  %23 = getelementptr inbounds nuw i8, ptr %21, i64 16
  %24 = load i32, ptr %22, align 4
  %25 = icmp sgt i32 %24, 0
  br i1 %25, label %.lr.ph31, label %._crit_edge

._crit_edge:                                      ; preds = %.lr.ph31, %.lr.ph, %7
  %26 = tail call ptr @palloc(i64 noundef 56) #16
  store i32 2, ptr %26, align 8
  %27 = load i8, ptr @creating_extension, align 1, !range !9, !noundef !10
  %28 = getelementptr inbounds nuw i8, ptr %26, i64 4
  store i8 %27, ptr %28, align 4
  %29 = getelementptr inbounds nuw i8, ptr %26, i64 16
  store ptr %10, ptr %29, align 8
  %30 = getelementptr inbounds nuw i8, ptr %26, i64 8
  store ptr null, ptr %30, align 8
  %31 = load ptr, ptr @currentEventTriggerState, align 8
  %32 = getelementptr inbounds nuw i8, ptr %31, i64 40
  %33 = load ptr, ptr %32, align 8
  %34 = tail call ptr @lappend(ptr noundef %33, ptr noundef nonnull %26) #16
  %35 = load ptr, ptr @currentEventTriggerState, align 8
  %36 = getelementptr inbounds nuw i8, ptr %35, i64 40
  store ptr %34, ptr %36, align 8
  store ptr %9, ptr @CurrentMemoryContext, align 8
  br label %46

.lr.ph31:                                         ; preds = %.lr.ph, %.lr.ph31
  %37 = phi ptr [ %42, %.lr.ph31 ], [ null, %.lr.ph ]
  %indvars.iv = phi i64 [ %indvars.iv.next, %.lr.ph31 ], [ 0, %.lr.ph ]
  %38 = load ptr, ptr %23, align 8
  %39 = getelementptr inbounds nuw %union.ListCell, ptr %38, i64 %indvars.iv
  %40 = load ptr, ptr %39, align 8
  %41 = tail call ptr @copyObjectImpl(ptr noundef %40) #16
  %42 = tail call ptr @lappend(ptr noundef %37, ptr noundef %41) #16
  store ptr %42, ptr %19, align 8
  %indvars.iv.next = add nuw nsw i64 %indvars.iv, 1
  %43 = load i32, ptr %22, align 4
  %44 = sext i32 %43 to i64
  %45 = icmp slt i64 %indvars.iv.next, %44
  br i1 %45, label %.lr.ph31, label %._crit_edge

46:                                               ; preds = %1, %3, %._crit_edge
  ret void
}